; Function Attrs: mustprogress nounwind uwtable
define internal void @_ZN12_GLOBAL__N_117AArch64AsmPrinter14emitXXStructorERKN4llvm10DataLayoutEPKNS1_8ConstantE(ptr noundef nonnull align 8 dereferenceable(1040) %0, ptr noundef nonnull align 8 dereferenceable(512) %1, ptr noundef %2) unnamed_addr #0 align 2 {
  %4 = load i8, ptr %2, align 8
  %.not = icmp eq i8 %4, 8
  br i1 %.not, label %5, label %12

5:                                                ; preds = %3
  %6 = getelementptr inbounds i8, ptr %2, i64 -32
  %7 = load ptr, ptr %6, align 8
  %8 = tail call noundef zeroext i1 @_ZNK4llvm8Constant11isNullValueEv(ptr noundef nonnull align 8 dereferenceable(24) %7) #21
  br i1 %8, label %12, label %9

9:                                                ; preds = %5
  %10 = tail call noundef zeroext i1 @_ZNK4llvm15ConstantPtrAuth30hasSpecialAddressDiscriminatorEm(ptr noundef nonnull align 8 dereferenceable(24) %2, i64 noundef 1) #21
  br i1 %10, label %12, label %11

11:                                               ; preds = %9
  tail call void @_ZN4llvm18report_fatal_errorEPKcb(ptr noundef nonnull @.str.55, i1 noundef zeroext true) #22
  unreachable

12:                                               ; preds = %5, %9, %3
  tail call void @_ZN4llvm10AsmPrinter18emitGlobalConstantERKNS_10DataLayoutEPKNS_8ConstantEPNS_8DenseMapImNS_11SmallVectorIPKNS_11GlobalAliasELj1EEENS_12DenseMapInfoImvEENS_6detail12DenseMapPairImSC_EEEE(ptr noundef nonnull align 8 dereferenceable(785) %0, ptr noundef nonnull align 8 dereferenceable(512) %1, ptr noundef nonnull %2, ptr noundef null) #21
  ret void
}